ARM GAS  C:\Users\Jerry\AppData\Local\Temp\cccmvvHz.s 			page 1


   1              		.cpu cortex-m4
   2              		.arch armv7e-m
   3              		.fpu fpv4-sp-d16
   4              		.eabi_attribute 27, 1
   5              		.eabi_attribute 28, 1
   6              		.eabi_attribute 20, 1
   7              		.eabi_attribute 21, 1
   8              		.eabi_attribute 23, 3
   9              		.eabi_attribute 24, 1
  10              		.eabi_attribute 25, 1
  11              		.eabi_attribute 26, 1
  12              		.eabi_attribute 30, 1
  13              		.eabi_attribute 34, 1
  14              		.eabi_attribute 18, 4
  15              		.file	"gpio.c"
  16              		.text
  17              	.Ltext0:
  18              		.cfi_sections	.debug_frame
  19              		.section	.text.MX_GPIO_Init,"ax",%progbits
  20              		.align	1
  21              		.global	MX_GPIO_Init
  22              		.syntax unified
  23              		.thumb
  24              		.thumb_func
  26              	MX_GPIO_Init:
  27              	.LFB130:
  28              		.file 1 "Src/gpio.c"
   1:Src/gpio.c    **** /* USER CODE BEGIN Header */
   2:Src/gpio.c    **** /**
   3:Src/gpio.c    ****   ******************************************************************************
   4:Src/gpio.c    ****   * @file    gpio.c
   5:Src/gpio.c    ****   * @brief   This file provides code for the configuration
   6:Src/gpio.c    ****   *          of all used GPIO pins.
   7:Src/gpio.c    ****   ******************************************************************************
   8:Src/gpio.c    ****   * @attention
   9:Src/gpio.c    ****   *
  10:Src/gpio.c    ****   * Copyright (c) 2022 STMicroelectronics.
  11:Src/gpio.c    ****   * All rights reserved.
  12:Src/gpio.c    ****   *
  13:Src/gpio.c    ****   * This software is licensed under terms that can be found in the LICENSE file
  14:Src/gpio.c    ****   * in the root directory of this software component.
  15:Src/gpio.c    ****   * If no LICENSE file comes with this software, it is provided AS-IS.
  16:Src/gpio.c    ****   *
  17:Src/gpio.c    ****   ******************************************************************************
  18:Src/gpio.c    ****   */
  19:Src/gpio.c    **** /* USER CODE END Header */
  20:Src/gpio.c    **** 
  21:Src/gpio.c    **** /* Includes ------------------------------------------------------------------*/
  22:Src/gpio.c    **** #include "gpio.h"
  23:Src/gpio.c    **** 
  24:Src/gpio.c    **** /* USER CODE BEGIN 0 */
  25:Src/gpio.c    **** 
  26:Src/gpio.c    **** /* USER CODE END 0 */
  27:Src/gpio.c    **** 
  28:Src/gpio.c    **** /*----------------------------------------------------------------------------*/
  29:Src/gpio.c    **** /* Configure GPIO                                                             */
  30:Src/gpio.c    **** /*----------------------------------------------------------------------------*/
ARM GAS  C:\Users\Jerry\AppData\Local\Temp\cccmvvHz.s 			page 2


  31:Src/gpio.c    **** /* USER CODE BEGIN 1 */
  32:Src/gpio.c    **** 
  33:Src/gpio.c    **** /* USER CODE END 1 */
  34:Src/gpio.c    **** 
  35:Src/gpio.c    **** /** Configure pins as
  36:Src/gpio.c    ****         * Analog
  37:Src/gpio.c    ****         * Input
  38:Src/gpio.c    ****         * Output
  39:Src/gpio.c    ****         * EVENT_OUT
  40:Src/gpio.c    ****         * EXTI
  41:Src/gpio.c    ****      PD6   ------> USART2_RX
  42:Src/gpio.c    ****      PD5   ------> USART2_TX
  43:Src/gpio.c    **** */
  44:Src/gpio.c    **** void MX_GPIO_Init(void)
  45:Src/gpio.c    **** {
  29              		.loc 1 45 1 view -0
  30              		.cfi_startproc
  31              		@ args = 0, pretend = 0, frame = 40
  32              		@ frame_needed = 0, uses_anonymous_args = 0
  33 0000 70B5     		push	{r4, r5, r6, lr}
  34              	.LCFI0:
  35              		.cfi_def_cfa_offset 16
  36              		.cfi_offset 4, -16
  37              		.cfi_offset 5, -12
  38              		.cfi_offset 6, -8
  39              		.cfi_offset 14, -4
  40 0002 8AB0     		sub	sp, sp, #40
  41              	.LCFI1:
  42              		.cfi_def_cfa_offset 56
  46:Src/gpio.c    **** 
  47:Src/gpio.c    ****   GPIO_InitTypeDef GPIO_InitStruct = {0};
  43              		.loc 1 47 3 view .LVU1
  44              		.loc 1 47 20 is_stmt 0 view .LVU2
  45 0004 0024     		movs	r4, #0
  46 0006 0594     		str	r4, [sp, #20]
  47 0008 0694     		str	r4, [sp, #24]
  48 000a 0794     		str	r4, [sp, #28]
  49 000c 0894     		str	r4, [sp, #32]
  50 000e 0994     		str	r4, [sp, #36]
  48:Src/gpio.c    **** 
  49:Src/gpio.c    ****   /* GPIO Ports Clock Enable */
  50:Src/gpio.c    ****   __HAL_RCC_GPIOA_CLK_ENABLE();
  51              		.loc 1 50 3 is_stmt 1 view .LVU3
  52              	.LBB2:
  53              		.loc 1 50 3 view .LVU4
  54 0010 0194     		str	r4, [sp, #4]
  55              		.loc 1 50 3 view .LVU5
  56 0012 244B     		ldr	r3, .L3
  57 0014 1A6B     		ldr	r2, [r3, #48]
  58 0016 42F00102 		orr	r2, r2, #1
  59 001a 1A63     		str	r2, [r3, #48]
  60              		.loc 1 50 3 view .LVU6
  61 001c 1A6B     		ldr	r2, [r3, #48]
  62 001e 02F00102 		and	r2, r2, #1
  63 0022 0192     		str	r2, [sp, #4]
  64              		.loc 1 50 3 view .LVU7
  65 0024 019A     		ldr	r2, [sp, #4]
ARM GAS  C:\Users\Jerry\AppData\Local\Temp\cccmvvHz.s 			page 3


  66              	.LBE2:
  67              		.loc 1 50 3 view .LVU8
  51:Src/gpio.c    ****   __HAL_RCC_GPIOB_CLK_ENABLE();
  68              		.loc 1 51 3 view .LVU9
  69              	.LBB3:
  70              		.loc 1 51 3 view .LVU10
  71 0026 0294     		str	r4, [sp, #8]
  72              		.loc 1 51 3 view .LVU11
  73 0028 1A6B     		ldr	r2, [r3, #48]
  74 002a 42F00202 		orr	r2, r2, #2
  75 002e 1A63     		str	r2, [r3, #48]
  76              		.loc 1 51 3 view .LVU12
  77 0030 1A6B     		ldr	r2, [r3, #48]
  78 0032 02F00202 		and	r2, r2, #2
  79 0036 0292     		str	r2, [sp, #8]
  80              		.loc 1 51 3 view .LVU13
  81 0038 029A     		ldr	r2, [sp, #8]
  82              	.LBE3:
  83              		.loc 1 51 3 view .LVU14
  52:Src/gpio.c    ****   __HAL_RCC_GPIOD_CLK_ENABLE();
  84              		.loc 1 52 3 view .LVU15
  85              	.LBB4:
  86              		.loc 1 52 3 view .LVU16
  87 003a 0394     		str	r4, [sp, #12]
  88              		.loc 1 52 3 view .LVU17
  89 003c 1A6B     		ldr	r2, [r3, #48]
  90 003e 42F00802 		orr	r2, r2, #8
  91 0042 1A63     		str	r2, [r3, #48]
  92              		.loc 1 52 3 view .LVU18
  93 0044 1A6B     		ldr	r2, [r3, #48]
  94 0046 02F00802 		and	r2, r2, #8
  95 004a 0392     		str	r2, [sp, #12]
  96              		.loc 1 52 3 view .LVU19
  97 004c 039A     		ldr	r2, [sp, #12]
  98              	.LBE4:
  99              		.loc 1 52 3 view .LVU20
  53:Src/gpio.c    ****   __HAL_RCC_GPIOH_CLK_ENABLE();
 100              		.loc 1 53 3 view .LVU21
 101              	.LBB5:
 102              		.loc 1 53 3 view .LVU22
 103 004e 0494     		str	r4, [sp, #16]
 104              		.loc 1 53 3 view .LVU23
 105 0050 1A6B     		ldr	r2, [r3, #48]
 106 0052 42F08002 		orr	r2, r2, #128
 107 0056 1A63     		str	r2, [r3, #48]
 108              		.loc 1 53 3 view .LVU24
 109 0058 1B6B     		ldr	r3, [r3, #48]
 110 005a 03F08003 		and	r3, r3, #128
 111 005e 0493     		str	r3, [sp, #16]
 112              		.loc 1 53 3 view .LVU25
 113 0060 049B     		ldr	r3, [sp, #16]
 114              	.LBE5:
 115              		.loc 1 53 3 view .LVU26
  54:Src/gpio.c    **** 
  55:Src/gpio.c    ****   /*Configure GPIO pin Output Level */
  56:Src/gpio.c    ****   HAL_GPIO_WritePin(GPIOH, LED_R_Pin|LED_G_Pin|LED_B_Pin, GPIO_PIN_SET);
 116              		.loc 1 56 3 view .LVU27
ARM GAS  C:\Users\Jerry\AppData\Local\Temp\cccmvvHz.s 			page 4


 117 0062 114D     		ldr	r5, .L3+4
 118 0064 0122     		movs	r2, #1
 119 0066 4FF4E051 		mov	r1, #7168
 120 006a 2846     		mov	r0, r5
 121 006c FFF7FEFF 		bl	HAL_GPIO_WritePin
 122              	.LVL0:
  57:Src/gpio.c    **** 
  58:Src/gpio.c    ****   /*Configure GPIO pins : PD6 PD5 */
  59:Src/gpio.c    ****   GPIO_InitStruct.Pin = GPIO_PIN_6|GPIO_PIN_5;
 123              		.loc 1 59 3 view .LVU28
 124              		.loc 1 59 23 is_stmt 0 view .LVU29
 125 0070 6023     		movs	r3, #96
 126 0072 0593     		str	r3, [sp, #20]
  60:Src/gpio.c    ****   GPIO_InitStruct.Mode = GPIO_MODE_AF_PP;
 127              		.loc 1 60 3 is_stmt 1 view .LVU30
 128              		.loc 1 60 24 is_stmt 0 view .LVU31
 129 0074 0226     		movs	r6, #2
 130 0076 0696     		str	r6, [sp, #24]
  61:Src/gpio.c    ****   GPIO_InitStruct.Pull = GPIO_NOPULL;
 131              		.loc 1 61 3 is_stmt 1 view .LVU32
 132              		.loc 1 61 24 is_stmt 0 view .LVU33
 133 0078 0794     		str	r4, [sp, #28]
  62:Src/gpio.c    ****   GPIO_InitStruct.Speed = GPIO_SPEED_FREQ_VERY_HIGH;
 134              		.loc 1 62 3 is_stmt 1 view .LVU34
 135              		.loc 1 62 25 is_stmt 0 view .LVU35
 136 007a 0323     		movs	r3, #3
 137 007c 0893     		str	r3, [sp, #32]
  63:Src/gpio.c    ****   GPIO_InitStruct.Alternate = GPIO_AF7_USART2;
 138              		.loc 1 63 3 is_stmt 1 view .LVU36
 139              		.loc 1 63 29 is_stmt 0 view .LVU37
 140 007e 0723     		movs	r3, #7
 141 0080 0993     		str	r3, [sp, #36]
  64:Src/gpio.c    ****   HAL_GPIO_Init(GPIOD, &GPIO_InitStruct);
 142              		.loc 1 64 3 is_stmt 1 view .LVU38
 143 0082 05A9     		add	r1, sp, #20
 144 0084 0948     		ldr	r0, .L3+8
 145 0086 FFF7FEFF 		bl	HAL_GPIO_Init
 146              	.LVL1:
  65:Src/gpio.c    **** 
  66:Src/gpio.c    ****   /*Configure GPIO pins : PHPin PHPin PHPin */
  67:Src/gpio.c    ****   GPIO_InitStruct.Pin = LED_R_Pin|LED_G_Pin|LED_B_Pin;
 147              		.loc 1 67 3 view .LVU39
 148              		.loc 1 67 23 is_stmt 0 view .LVU40
 149 008a 4FF4E053 		mov	r3, #7168
 150 008e 0593     		str	r3, [sp, #20]
  68:Src/gpio.c    ****   GPIO_InitStruct.Mode = GPIO_MODE_OUTPUT_PP;
 151              		.loc 1 68 3 is_stmt 1 view .LVU41
 152              		.loc 1 68 24 is_stmt 0 view .LVU42
 153 0090 0123     		movs	r3, #1
 154 0092 0693     		str	r3, [sp, #24]
  69:Src/gpio.c    ****   GPIO_InitStruct.Pull = GPIO_PULLUP;
 155              		.loc 1 69 3 is_stmt 1 view .LVU43
 156              		.loc 1 69 24 is_stmt 0 view .LVU44
 157 0094 0793     		str	r3, [sp, #28]
  70:Src/gpio.c    ****   GPIO_InitStruct.Speed = GPIO_SPEED_FREQ_HIGH;
 158              		.loc 1 70 3 is_stmt 1 view .LVU45
 159              		.loc 1 70 25 is_stmt 0 view .LVU46
ARM GAS  C:\Users\Jerry\AppData\Local\Temp\cccmvvHz.s 			page 5


 160 0096 0896     		str	r6, [sp, #32]
  71:Src/gpio.c    ****   HAL_GPIO_Init(GPIOH, &GPIO_InitStruct);
 161              		.loc 1 71 3 is_stmt 1 view .LVU47
 162 0098 05A9     		add	r1, sp, #20
 163 009a 2846     		mov	r0, r5
 164 009c FFF7FEFF 		bl	HAL_GPIO_Init
 165              	.LVL2:
  72:Src/gpio.c    **** 
  73:Src/gpio.c    **** }
 166              		.loc 1 73 1 is_stmt 0 view .LVU48
 167 00a0 0AB0     		add	sp, sp, #40
 168              	.LCFI2:
 169              		.cfi_def_cfa_offset 16
 170              		@ sp needed
 171 00a2 70BD     		pop	{r4, r5, r6, pc}
 172              	.L4:
 173              		.align	2
 174              	.L3:
 175 00a4 00380240 		.word	1073887232
 176 00a8 001C0240 		.word	1073880064
 177 00ac 000C0240 		.word	1073875968
 178              		.cfi_endproc
 179              	.LFE130:
 181              		.text
 182              	.Letext0:
 183              		.file 2 "c:\\users\\jerry\\appdata\\roaming\\code\\user\\globalstorage\\bmd.stm32-for-vscode\\@xpa
 184              		.file 3 "c:\\users\\jerry\\appdata\\roaming\\code\\user\\globalstorage\\bmd.stm32-for-vscode\\@xpa
 185              		.file 4 "Drivers/CMSIS/Device/ST/STM32F4xx/Include/stm32f407xx.h"
 186              		.file 5 "Drivers/STM32F4xx_HAL_Driver/Inc/stm32f4xx_hal_gpio.h"
ARM GAS  C:\Users\Jerry\AppData\Local\Temp\cccmvvHz.s 			page 6

