ARM GAS  C:\Users\Jerry\AppData\Local\Temp\ccqcv0r0.s 			page 1


   1              		.cpu cortex-m4
   2              		.arch armv7e-m
   3              		.fpu fpv4-sp-d16
   4              		.eabi_attribute 27, 1
   5              		.eabi_attribute 28, 1
   6              		.eabi_attribute 20, 1
   7              		.eabi_attribute 21, 1
   8              		.eabi_attribute 23, 3
   9              		.eabi_attribute 24, 1
  10              		.eabi_attribute 25, 1
  11              		.eabi_attribute 26, 1
  12              		.eabi_attribute 30, 1
  13              		.eabi_attribute 34, 1
  14              		.eabi_attribute 18, 4
  15              		.file	"usart.c"
  16              		.text
  17              	.Ltext0:
  18              		.cfi_sections	.debug_frame
  19              		.section	.text.MX_USART1_UART_Init,"ax",%progbits
  20              		.align	1
  21              		.global	MX_USART1_UART_Init
  22              		.syntax unified
  23              		.thumb
  24              		.thumb_func
  26              	MX_USART1_UART_Init:
  27              	.LFB130:
  28              		.file 1 "Src/usart.c"
   1:Src/usart.c   **** /* USER CODE BEGIN Header */
   2:Src/usart.c   **** /**
   3:Src/usart.c   ****   ******************************************************************************
   4:Src/usart.c   ****   * @file    usart.c
   5:Src/usart.c   ****   * @brief   This file provides code for the configuration
   6:Src/usart.c   ****   *          of the USART instances.
   7:Src/usart.c   ****   ******************************************************************************
   8:Src/usart.c   ****   * @attention
   9:Src/usart.c   ****   *
  10:Src/usart.c   ****   * Copyright (c) 2022 STMicroelectronics.
  11:Src/usart.c   ****   * All rights reserved.
  12:Src/usart.c   ****   *
  13:Src/usart.c   ****   * This software is licensed under terms that can be found in the LICENSE file
  14:Src/usart.c   ****   * in the root directory of this software component.
  15:Src/usart.c   ****   * If no LICENSE file comes with this software, it is provided AS-IS.
  16:Src/usart.c   ****   *
  17:Src/usart.c   ****   ******************************************************************************
  18:Src/usart.c   ****   */
  19:Src/usart.c   **** /* USER CODE END Header */
  20:Src/usart.c   **** /* Includes ------------------------------------------------------------------*/
  21:Src/usart.c   **** #include "usart.h"
  22:Src/usart.c   **** 
  23:Src/usart.c   **** /* USER CODE BEGIN 0 */
  24:Src/usart.c   **** 
  25:Src/usart.c   **** /* USER CODE END 0 */
  26:Src/usart.c   **** 
  27:Src/usart.c   **** UART_HandleTypeDef huart1;
  28:Src/usart.c   **** 
  29:Src/usart.c   **** /* USART1 init function */
  30:Src/usart.c   **** 
ARM GAS  C:\Users\Jerry\AppData\Local\Temp\ccqcv0r0.s 			page 2


  31:Src/usart.c   **** void MX_USART1_UART_Init(void)
  32:Src/usart.c   **** {
  29              		.loc 1 32 1 view -0
  30              		.cfi_startproc
  31              		@ args = 0, pretend = 0, frame = 0
  32              		@ frame_needed = 0, uses_anonymous_args = 0
  33 0000 08B5     		push	{r3, lr}
  34              	.LCFI0:
  35              		.cfi_def_cfa_offset 8
  36              		.cfi_offset 3, -8
  37              		.cfi_offset 14, -4
  33:Src/usart.c   **** 
  34:Src/usart.c   ****   /* USER CODE BEGIN USART1_Init 0 */
  35:Src/usart.c   **** 
  36:Src/usart.c   ****   /* USER CODE END USART1_Init 0 */
  37:Src/usart.c   **** 
  38:Src/usart.c   ****   /* USER CODE BEGIN USART1_Init 1 */
  39:Src/usart.c   **** 
  40:Src/usart.c   ****   /* USER CODE END USART1_Init 1 */
  41:Src/usart.c   ****   huart1.Instance = USART1;
  38              		.loc 1 41 3 view .LVU1
  39              		.loc 1 41 19 is_stmt 0 view .LVU2
  40 0002 0A48     		ldr	r0, .L5
  41 0004 0A4B     		ldr	r3, .L5+4
  42 0006 0360     		str	r3, [r0]
  42:Src/usart.c   ****   huart1.Init.BaudRate = 115200;
  43              		.loc 1 42 3 is_stmt 1 view .LVU3
  44              		.loc 1 42 24 is_stmt 0 view .LVU4
  45 0008 4FF4E133 		mov	r3, #115200
  46 000c 4360     		str	r3, [r0, #4]
  43:Src/usart.c   ****   huart1.Init.WordLength = UART_WORDLENGTH_8B;
  47              		.loc 1 43 3 is_stmt 1 view .LVU5
  48              		.loc 1 43 26 is_stmt 0 view .LVU6
  49 000e 0023     		movs	r3, #0
  50 0010 8360     		str	r3, [r0, #8]
  44:Src/usart.c   ****   huart1.Init.StopBits = UART_STOPBITS_1;
  51              		.loc 1 44 3 is_stmt 1 view .LVU7
  52              		.loc 1 44 24 is_stmt 0 view .LVU8
  53 0012 C360     		str	r3, [r0, #12]
  45:Src/usart.c   ****   huart1.Init.Parity = UART_PARITY_NONE;
  54              		.loc 1 45 3 is_stmt 1 view .LVU9
  55              		.loc 1 45 22 is_stmt 0 view .LVU10
  56 0014 0361     		str	r3, [r0, #16]
  46:Src/usart.c   ****   huart1.Init.Mode = UART_MODE_TX_RX;
  57              		.loc 1 46 3 is_stmt 1 view .LVU11
  58              		.loc 1 46 20 is_stmt 0 view .LVU12
  59 0016 0C22     		movs	r2, #12
  60 0018 4261     		str	r2, [r0, #20]
  47:Src/usart.c   ****   huart1.Init.HwFlowCtl = UART_HWCONTROL_NONE;
  61              		.loc 1 47 3 is_stmt 1 view .LVU13
  62              		.loc 1 47 25 is_stmt 0 view .LVU14
  63 001a 8361     		str	r3, [r0, #24]
  48:Src/usart.c   ****   huart1.Init.OverSampling = UART_OVERSAMPLING_16;
  64              		.loc 1 48 3 is_stmt 1 view .LVU15
  65              		.loc 1 48 28 is_stmt 0 view .LVU16
  66 001c C361     		str	r3, [r0, #28]
  49:Src/usart.c   ****   if (HAL_UART_Init(&huart1) != HAL_OK)
ARM GAS  C:\Users\Jerry\AppData\Local\Temp\ccqcv0r0.s 			page 3


  67              		.loc 1 49 3 is_stmt 1 view .LVU17
  68              		.loc 1 49 7 is_stmt 0 view .LVU18
  69 001e FFF7FEFF 		bl	HAL_UART_Init
  70              	.LVL0:
  71              		.loc 1 49 6 view .LVU19
  72 0022 00B9     		cbnz	r0, .L4
  73              	.L1:
  50:Src/usart.c   ****   {
  51:Src/usart.c   ****     Error_Handler();
  52:Src/usart.c   ****   }
  53:Src/usart.c   ****   /* USER CODE BEGIN USART1_Init 2 */
  54:Src/usart.c   **** 
  55:Src/usart.c   ****   /* USER CODE END USART1_Init 2 */
  56:Src/usart.c   **** 
  57:Src/usart.c   **** }
  74              		.loc 1 57 1 view .LVU20
  75 0024 08BD     		pop	{r3, pc}
  76              	.L4:
  51:Src/usart.c   ****   }
  77              		.loc 1 51 5 is_stmt 1 view .LVU21
  78 0026 FFF7FEFF 		bl	Error_Handler
  79              	.LVL1:
  80              		.loc 1 57 1 is_stmt 0 view .LVU22
  81 002a FBE7     		b	.L1
  82              	.L6:
  83              		.align	2
  84              	.L5:
  85 002c 00000000 		.word	.LANCHOR0
  86 0030 00100140 		.word	1073811456
  87              		.cfi_endproc
  88              	.LFE130:
  90              		.section	.text.HAL_UART_MspInit,"ax",%progbits
  91              		.align	1
  92              		.global	HAL_UART_MspInit
  93              		.syntax unified
  94              		.thumb
  95              		.thumb_func
  97              	HAL_UART_MspInit:
  98              	.LVL2:
  99              	.LFB131:
  58:Src/usart.c   **** 
  59:Src/usart.c   **** void HAL_UART_MspInit(UART_HandleTypeDef* uartHandle)
  60:Src/usart.c   **** {
 100              		.loc 1 60 1 is_stmt 1 view -0
 101              		.cfi_startproc
 102              		@ args = 0, pretend = 0, frame = 32
 103              		@ frame_needed = 0, uses_anonymous_args = 0
 104              		.loc 1 60 1 is_stmt 0 view .LVU24
 105 0000 F0B5     		push	{r4, r5, r6, r7, lr}
 106              	.LCFI1:
 107              		.cfi_def_cfa_offset 20
 108              		.cfi_offset 4, -20
 109              		.cfi_offset 5, -16
 110              		.cfi_offset 6, -12
 111              		.cfi_offset 7, -8
 112              		.cfi_offset 14, -4
 113 0002 89B0     		sub	sp, sp, #36
ARM GAS  C:\Users\Jerry\AppData\Local\Temp\ccqcv0r0.s 			page 4


 114              	.LCFI2:
 115              		.cfi_def_cfa_offset 56
  61:Src/usart.c   **** 
  62:Src/usart.c   ****   GPIO_InitTypeDef GPIO_InitStruct = {0};
 116              		.loc 1 62 3 is_stmt 1 view .LVU25
 117              		.loc 1 62 20 is_stmt 0 view .LVU26
 118 0004 0023     		movs	r3, #0
 119 0006 0393     		str	r3, [sp, #12]
 120 0008 0493     		str	r3, [sp, #16]
 121 000a 0593     		str	r3, [sp, #20]
 122 000c 0693     		str	r3, [sp, #24]
 123 000e 0793     		str	r3, [sp, #28]
  63:Src/usart.c   ****   if(uartHandle->Instance==USART1)
 124              		.loc 1 63 3 is_stmt 1 view .LVU27
 125              		.loc 1 63 16 is_stmt 0 view .LVU28
 126 0010 0268     		ldr	r2, [r0]
 127              		.loc 1 63 5 view .LVU29
 128 0012 03F18043 		add	r3, r3, #1073741824
 129 0016 03F58833 		add	r3, r3, #69632
 130 001a 9A42     		cmp	r2, r3
 131 001c 01D0     		beq	.L10
 132              	.LVL3:
 133              	.L7:
  64:Src/usart.c   ****   {
  65:Src/usart.c   ****   /* USER CODE BEGIN USART1_MspInit 0 */
  66:Src/usart.c   **** 
  67:Src/usart.c   ****   /* USER CODE END USART1_MspInit 0 */
  68:Src/usart.c   ****     /* USART1 clock enable */
  69:Src/usart.c   ****     __HAL_RCC_USART1_CLK_ENABLE();
  70:Src/usart.c   **** 
  71:Src/usart.c   ****     __HAL_RCC_GPIOB_CLK_ENABLE();
  72:Src/usart.c   ****     __HAL_RCC_GPIOA_CLK_ENABLE();
  73:Src/usart.c   ****     /**USART1 GPIO Configuration
  74:Src/usart.c   ****     PB7     ------> USART1_RX
  75:Src/usart.c   ****     PA9     ------> USART1_TX
  76:Src/usart.c   ****     */
  77:Src/usart.c   ****     GPIO_InitStruct.Pin = GPIO_PIN_7;
  78:Src/usart.c   ****     GPIO_InitStruct.Mode = GPIO_MODE_AF_PP;
  79:Src/usart.c   ****     GPIO_InitStruct.Pull = GPIO_NOPULL;
  80:Src/usart.c   ****     GPIO_InitStruct.Speed = GPIO_SPEED_FREQ_VERY_HIGH;
  81:Src/usart.c   ****     GPIO_InitStruct.Alternate = GPIO_AF7_USART1;
  82:Src/usart.c   ****     HAL_GPIO_Init(GPIOB, &GPIO_InitStruct);
  83:Src/usart.c   **** 
  84:Src/usart.c   ****     GPIO_InitStruct.Pin = GPIO_PIN_9;
  85:Src/usart.c   ****     GPIO_InitStruct.Mode = GPIO_MODE_AF_PP;
  86:Src/usart.c   ****     GPIO_InitStruct.Pull = GPIO_NOPULL;
  87:Src/usart.c   ****     GPIO_InitStruct.Speed = GPIO_SPEED_FREQ_VERY_HIGH;
  88:Src/usart.c   ****     GPIO_InitStruct.Alternate = GPIO_AF7_USART1;
  89:Src/usart.c   ****     HAL_GPIO_Init(GPIOA, &GPIO_InitStruct);
  90:Src/usart.c   **** 
  91:Src/usart.c   ****     /* USART1 interrupt Init */
  92:Src/usart.c   ****     HAL_NVIC_SetPriority(USART1_IRQn, 0, 0);
  93:Src/usart.c   ****     HAL_NVIC_EnableIRQ(USART1_IRQn);
  94:Src/usart.c   ****   /* USER CODE BEGIN USART1_MspInit 1 */
  95:Src/usart.c   **** 
  96:Src/usart.c   ****   /* USER CODE END USART1_MspInit 1 */
  97:Src/usart.c   ****   }
ARM GAS  C:\Users\Jerry\AppData\Local\Temp\ccqcv0r0.s 			page 5


  98:Src/usart.c   **** }
 134              		.loc 1 98 1 view .LVU30
 135 001e 09B0     		add	sp, sp, #36
 136              	.LCFI3:
 137              		.cfi_remember_state
 138              		.cfi_def_cfa_offset 20
 139              		@ sp needed
 140 0020 F0BD     		pop	{r4, r5, r6, r7, pc}
 141              	.LVL4:
 142              	.L10:
 143              	.LCFI4:
 144              		.cfi_restore_state
  69:Src/usart.c   **** 
 145              		.loc 1 69 5 is_stmt 1 view .LVU31
 146              	.LBB2:
  69:Src/usart.c   **** 
 147              		.loc 1 69 5 view .LVU32
 148 0022 0024     		movs	r4, #0
 149 0024 0094     		str	r4, [sp]
  69:Src/usart.c   **** 
 150              		.loc 1 69 5 view .LVU33
 151 0026 03F59433 		add	r3, r3, #75776
 152 002a 5A6C     		ldr	r2, [r3, #68]
 153 002c 42F01002 		orr	r2, r2, #16
 154 0030 5A64     		str	r2, [r3, #68]
  69:Src/usart.c   **** 
 155              		.loc 1 69 5 view .LVU34
 156 0032 5A6C     		ldr	r2, [r3, #68]
 157 0034 02F01002 		and	r2, r2, #16
 158 0038 0092     		str	r2, [sp]
  69:Src/usart.c   **** 
 159              		.loc 1 69 5 view .LVU35
 160 003a 009A     		ldr	r2, [sp]
 161              	.LBE2:
  69:Src/usart.c   **** 
 162              		.loc 1 69 5 view .LVU36
  71:Src/usart.c   ****     __HAL_RCC_GPIOA_CLK_ENABLE();
 163              		.loc 1 71 5 view .LVU37
 164              	.LBB3:
  71:Src/usart.c   ****     __HAL_RCC_GPIOA_CLK_ENABLE();
 165              		.loc 1 71 5 view .LVU38
 166 003c 0194     		str	r4, [sp, #4]
  71:Src/usart.c   ****     __HAL_RCC_GPIOA_CLK_ENABLE();
 167              		.loc 1 71 5 view .LVU39
 168 003e 1A6B     		ldr	r2, [r3, #48]
 169 0040 42F00202 		orr	r2, r2, #2
 170 0044 1A63     		str	r2, [r3, #48]
  71:Src/usart.c   ****     __HAL_RCC_GPIOA_CLK_ENABLE();
 171              		.loc 1 71 5 view .LVU40
 172 0046 1A6B     		ldr	r2, [r3, #48]
 173 0048 02F00202 		and	r2, r2, #2
 174 004c 0192     		str	r2, [sp, #4]
  71:Src/usart.c   ****     __HAL_RCC_GPIOA_CLK_ENABLE();
 175              		.loc 1 71 5 view .LVU41
 176 004e 019A     		ldr	r2, [sp, #4]
 177              	.LBE3:
  71:Src/usart.c   ****     __HAL_RCC_GPIOA_CLK_ENABLE();
ARM GAS  C:\Users\Jerry\AppData\Local\Temp\ccqcv0r0.s 			page 6


 178              		.loc 1 71 5 view .LVU42
  72:Src/usart.c   ****     /**USART1 GPIO Configuration
 179              		.loc 1 72 5 view .LVU43
 180              	.LBB4:
  72:Src/usart.c   ****     /**USART1 GPIO Configuration
 181              		.loc 1 72 5 view .LVU44
 182 0050 0294     		str	r4, [sp, #8]
  72:Src/usart.c   ****     /**USART1 GPIO Configuration
 183              		.loc 1 72 5 view .LVU45
 184 0052 1A6B     		ldr	r2, [r3, #48]
 185 0054 42F00102 		orr	r2, r2, #1
 186 0058 1A63     		str	r2, [r3, #48]
  72:Src/usart.c   ****     /**USART1 GPIO Configuration
 187              		.loc 1 72 5 view .LVU46
 188 005a 1B6B     		ldr	r3, [r3, #48]
 189 005c 03F00103 		and	r3, r3, #1
 190 0060 0293     		str	r3, [sp, #8]
  72:Src/usart.c   ****     /**USART1 GPIO Configuration
 191              		.loc 1 72 5 view .LVU47
 192 0062 029B     		ldr	r3, [sp, #8]
 193              	.LBE4:
  72:Src/usart.c   ****     /**USART1 GPIO Configuration
 194              		.loc 1 72 5 view .LVU48
  77:Src/usart.c   ****     GPIO_InitStruct.Mode = GPIO_MODE_AF_PP;
 195              		.loc 1 77 5 view .LVU49
  77:Src/usart.c   ****     GPIO_InitStruct.Mode = GPIO_MODE_AF_PP;
 196              		.loc 1 77 25 is_stmt 0 view .LVU50
 197 0064 8023     		movs	r3, #128
 198 0066 0393     		str	r3, [sp, #12]
  78:Src/usart.c   ****     GPIO_InitStruct.Pull = GPIO_NOPULL;
 199              		.loc 1 78 5 is_stmt 1 view .LVU51
  78:Src/usart.c   ****     GPIO_InitStruct.Pull = GPIO_NOPULL;
 200              		.loc 1 78 26 is_stmt 0 view .LVU52
 201 0068 0227     		movs	r7, #2
 202 006a 0497     		str	r7, [sp, #16]
  79:Src/usart.c   ****     GPIO_InitStruct.Speed = GPIO_SPEED_FREQ_VERY_HIGH;
 203              		.loc 1 79 5 is_stmt 1 view .LVU53
  80:Src/usart.c   ****     GPIO_InitStruct.Alternate = GPIO_AF7_USART1;
 204              		.loc 1 80 5 view .LVU54
  80:Src/usart.c   ****     GPIO_InitStruct.Alternate = GPIO_AF7_USART1;
 205              		.loc 1 80 27 is_stmt 0 view .LVU55
 206 006c 0326     		movs	r6, #3
 207 006e 0696     		str	r6, [sp, #24]
  81:Src/usart.c   ****     HAL_GPIO_Init(GPIOB, &GPIO_InitStruct);
 208              		.loc 1 81 5 is_stmt 1 view .LVU56
  81:Src/usart.c   ****     HAL_GPIO_Init(GPIOB, &GPIO_InitStruct);
 209              		.loc 1 81 31 is_stmt 0 view .LVU57
 210 0070 0725     		movs	r5, #7
 211 0072 0795     		str	r5, [sp, #28]
  82:Src/usart.c   **** 
 212              		.loc 1 82 5 is_stmt 1 view .LVU58
 213 0074 03A9     		add	r1, sp, #12
 214 0076 0B48     		ldr	r0, .L11
 215              	.LVL5:
  82:Src/usart.c   **** 
 216              		.loc 1 82 5 is_stmt 0 view .LVU59
 217 0078 FFF7FEFF 		bl	HAL_GPIO_Init
ARM GAS  C:\Users\Jerry\AppData\Local\Temp\ccqcv0r0.s 			page 7


 218              	.LVL6:
  84:Src/usart.c   ****     GPIO_InitStruct.Mode = GPIO_MODE_AF_PP;
 219              		.loc 1 84 5 is_stmt 1 view .LVU60
  84:Src/usart.c   ****     GPIO_InitStruct.Mode = GPIO_MODE_AF_PP;
 220              		.loc 1 84 25 is_stmt 0 view .LVU61
 221 007c 4FF40073 		mov	r3, #512
 222 0080 0393     		str	r3, [sp, #12]
  85:Src/usart.c   ****     GPIO_InitStruct.Pull = GPIO_NOPULL;
 223              		.loc 1 85 5 is_stmt 1 view .LVU62
  85:Src/usart.c   ****     GPIO_InitStruct.Pull = GPIO_NOPULL;
 224              		.loc 1 85 26 is_stmt 0 view .LVU63
 225 0082 0497     		str	r7, [sp, #16]
  86:Src/usart.c   ****     GPIO_InitStruct.Speed = GPIO_SPEED_FREQ_VERY_HIGH;
 226              		.loc 1 86 5 is_stmt 1 view .LVU64
  86:Src/usart.c   ****     GPIO_InitStruct.Speed = GPIO_SPEED_FREQ_VERY_HIGH;
 227              		.loc 1 86 26 is_stmt 0 view .LVU65
 228 0084 0594     		str	r4, [sp, #20]
  87:Src/usart.c   ****     GPIO_InitStruct.Alternate = GPIO_AF7_USART1;
 229              		.loc 1 87 5 is_stmt 1 view .LVU66
  87:Src/usart.c   ****     GPIO_InitStruct.Alternate = GPIO_AF7_USART1;
 230              		.loc 1 87 27 is_stmt 0 view .LVU67
 231 0086 0696     		str	r6, [sp, #24]
  88:Src/usart.c   ****     HAL_GPIO_Init(GPIOA, &GPIO_InitStruct);
 232              		.loc 1 88 5 is_stmt 1 view .LVU68
  88:Src/usart.c   ****     HAL_GPIO_Init(GPIOA, &GPIO_InitStruct);
 233              		.loc 1 88 31 is_stmt 0 view .LVU69
 234 0088 0795     		str	r5, [sp, #28]
  89:Src/usart.c   **** 
 235              		.loc 1 89 5 is_stmt 1 view .LVU70
 236 008a 03A9     		add	r1, sp, #12
 237 008c 0648     		ldr	r0, .L11+4
 238 008e FFF7FEFF 		bl	HAL_GPIO_Init
 239              	.LVL7:
  92:Src/usart.c   ****     HAL_NVIC_EnableIRQ(USART1_IRQn);
 240              		.loc 1 92 5 view .LVU71
 241 0092 2246     		mov	r2, r4
 242 0094 2146     		mov	r1, r4
 243 0096 2520     		movs	r0, #37
 244 0098 FFF7FEFF 		bl	HAL_NVIC_SetPriority
 245              	.LVL8:
  93:Src/usart.c   ****   /* USER CODE BEGIN USART1_MspInit 1 */
 246              		.loc 1 93 5 view .LVU72
 247 009c 2520     		movs	r0, #37
 248 009e FFF7FEFF 		bl	HAL_NVIC_EnableIRQ
 249              	.LVL9:
 250              		.loc 1 98 1 is_stmt 0 view .LVU73
 251 00a2 BCE7     		b	.L7
 252              	.L12:
 253              		.align	2
 254              	.L11:
 255 00a4 00040240 		.word	1073873920
 256 00a8 00000240 		.word	1073872896
 257              		.cfi_endproc
 258              	.LFE131:
 260              		.section	.text.HAL_UART_MspDeInit,"ax",%progbits
 261              		.align	1
 262              		.global	HAL_UART_MspDeInit
ARM GAS  C:\Users\Jerry\AppData\Local\Temp\ccqcv0r0.s 			page 8


 263              		.syntax unified
 264              		.thumb
 265              		.thumb_func
 267              	HAL_UART_MspDeInit:
 268              	.LVL10:
 269              	.LFB132:
  99:Src/usart.c   **** 
 100:Src/usart.c   **** void HAL_UART_MspDeInit(UART_HandleTypeDef* uartHandle)
 101:Src/usart.c   **** {
 270              		.loc 1 101 1 is_stmt 1 view -0
 271              		.cfi_startproc
 272              		@ args = 0, pretend = 0, frame = 0
 273              		@ frame_needed = 0, uses_anonymous_args = 0
 274              		.loc 1 101 1 is_stmt 0 view .LVU75
 275 0000 08B5     		push	{r3, lr}
 276              	.LCFI5:
 277              		.cfi_def_cfa_offset 8
 278              		.cfi_offset 3, -8
 279              		.cfi_offset 14, -4
 102:Src/usart.c   **** 
 103:Src/usart.c   ****   if(uartHandle->Instance==USART1)
 280              		.loc 1 103 3 is_stmt 1 view .LVU76
 281              		.loc 1 103 16 is_stmt 0 view .LVU77
 282 0002 0268     		ldr	r2, [r0]
 283              		.loc 1 103 5 view .LVU78
 284 0004 0A4B     		ldr	r3, .L17
 285 0006 9A42     		cmp	r2, r3
 286 0008 00D0     		beq	.L16
 287              	.LVL11:
 288              	.L13:
 104:Src/usart.c   ****   {
 105:Src/usart.c   ****   /* USER CODE BEGIN USART1_MspDeInit 0 */
 106:Src/usart.c   **** 
 107:Src/usart.c   ****   /* USER CODE END USART1_MspDeInit 0 */
 108:Src/usart.c   ****     /* Peripheral clock disable */
 109:Src/usart.c   ****     __HAL_RCC_USART1_CLK_DISABLE();
 110:Src/usart.c   **** 
 111:Src/usart.c   ****     /**USART1 GPIO Configuration
 112:Src/usart.c   ****     PB7     ------> USART1_RX
 113:Src/usart.c   ****     PA9     ------> USART1_TX
 114:Src/usart.c   ****     */
 115:Src/usart.c   ****     HAL_GPIO_DeInit(GPIOB, GPIO_PIN_7);
 116:Src/usart.c   **** 
 117:Src/usart.c   ****     HAL_GPIO_DeInit(GPIOA, GPIO_PIN_9);
 118:Src/usart.c   **** 
 119:Src/usart.c   ****     /* USART1 interrupt Deinit */
 120:Src/usart.c   ****     HAL_NVIC_DisableIRQ(USART1_IRQn);
 121:Src/usart.c   ****   /* USER CODE BEGIN USART1_MspDeInit 1 */
 122:Src/usart.c   **** 
 123:Src/usart.c   ****   /* USER CODE END USART1_MspDeInit 1 */
 124:Src/usart.c   ****   }
 125:Src/usart.c   **** }
 289              		.loc 1 125 1 view .LVU79
 290 000a 08BD     		pop	{r3, pc}
 291              	.LVL12:
 292              	.L16:
 109:Src/usart.c   **** 
ARM GAS  C:\Users\Jerry\AppData\Local\Temp\ccqcv0r0.s 			page 9


 293              		.loc 1 109 5 is_stmt 1 view .LVU80
 294 000c 094A     		ldr	r2, .L17+4
 295 000e 536C     		ldr	r3, [r2, #68]
 296 0010 23F01003 		bic	r3, r3, #16
 297 0014 5364     		str	r3, [r2, #68]
 115:Src/usart.c   **** 
 298              		.loc 1 115 5 view .LVU81
 299 0016 8021     		movs	r1, #128
 300 0018 0748     		ldr	r0, .L17+8
 301              	.LVL13:
 115:Src/usart.c   **** 
 302              		.loc 1 115 5 is_stmt 0 view .LVU82
 303 001a FFF7FEFF 		bl	HAL_GPIO_DeInit
 304              	.LVL14:
 117:Src/usart.c   **** 
 305              		.loc 1 117 5 is_stmt 1 view .LVU83
 306 001e 4FF40071 		mov	r1, #512
 307 0022 0648     		ldr	r0, .L17+12
 308 0024 FFF7FEFF 		bl	HAL_GPIO_DeInit
 309              	.LVL15:
 120:Src/usart.c   ****   /* USER CODE BEGIN USART1_MspDeInit 1 */
 310              		.loc 1 120 5 view .LVU84
 311 0028 2520     		movs	r0, #37
 312 002a FFF7FEFF 		bl	HAL_NVIC_DisableIRQ
 313              	.LVL16:
 314              		.loc 1 125 1 is_stmt 0 view .LVU85
 315 002e ECE7     		b	.L13
 316              	.L18:
 317              		.align	2
 318              	.L17:
 319 0030 00100140 		.word	1073811456
 320 0034 00380240 		.word	1073887232
 321 0038 00040240 		.word	1073873920
 322 003c 00000240 		.word	1073872896
 323              		.cfi_endproc
 324              	.LFE132:
 326              		.global	huart1
 327              		.section	.bss.huart1,"aw",%nobits
 328              		.align	2
 329              		.set	.LANCHOR0,. + 0
 332              	huart1:
 333 0000 00000000 		.space	68
 333      00000000 
 333      00000000 
 333      00000000 
 333      00000000 
 334              		.text
 335              	.Letext0:
 336              		.file 2 "c:\\users\\jerry\\appdata\\roaming\\code\\user\\globalstorage\\bmd.stm32-for-vscode\\@xpa
 337              		.file 3 "c:\\users\\jerry\\appdata\\roaming\\code\\user\\globalstorage\\bmd.stm32-for-vscode\\@xpa
 338              		.file 4 "Drivers/CMSIS/Device/ST/STM32F4xx/Include/stm32f407xx.h"
 339              		.file 5 "Drivers/STM32F4xx_HAL_Driver/Inc/stm32f4xx_hal_def.h"
 340              		.file 6 "Drivers/STM32F4xx_HAL_Driver/Inc/stm32f4xx_hal_gpio.h"
 341              		.file 7 "Drivers/STM32F4xx_HAL_Driver/Inc/stm32f4xx_hal_dma.h"
 342              		.file 8 "Drivers/STM32F4xx_HAL_Driver/Inc/stm32f4xx_hal_uart.h"
 343              		.file 9 "Drivers/STM32F4xx_HAL_Driver/Inc/stm32f4xx_hal_cortex.h"
 344              		.file 10 "Inc/main.h"
ARM GAS  C:\Users\Jerry\AppData\Local\Temp\ccqcv0r0.s 			page 10


 345              		.file 11 "Inc/usart.h"
ARM GAS  C:\Users\Jerry\AppData\Local\Temp\ccqcv0r0.s 			page 11

